target datalayout = "e-m:e-p270:32:32-p271:32:32-p272:64:64-i64:64-i128:128-f80:128-n8:16:32:64-S128"
target triple = "x86_64-pc-linux-gnu"

%struct.MXFCodecUL = type { [16 x i8], i32, i32, ptr, i32, i32 }
%struct.AVFormatContext = type { ptr, ptr, ptr, ptr, ptr, i32, i32, ptr, i32, ptr, i32, ptr, ptr, i64, i64, i64, i32, i32, i32, i64, i64, ptr, i32, i32, ptr, i32, i32, i32, i32, ptr, i64, i32, i32, %struct.AVIOInterruptCB, i32, i32, i32, i32, i64, i32, i32, i32, i32, i32, i32, i32, i32, i32, i32, i32, i32, i64, i32, i32, i32, i32, i32, ptr, ptr, ptr, ptr, i32, ptr, ptr, ptr, ptr, i32, ptr, ptr, i64, ptr, ptr, ptr, i64 }
%struct.AVIOInterruptCB = type { ptr, ptr }
%struct.AVPacket = type { ptr, i64, i64, ptr, i32, i32, i32, ptr, i32, i64, i64, ptr, ptr, %struct.AVRational }
%struct.AVRational = type { i32, i32 }
%struct.AVStream = type { ptr, i32, i32, ptr, ptr, %struct.AVRational, i64, i64, i64, i32, i32, %struct.AVRational, ptr, %struct.AVRational, %struct.AVPacket, i32, %struct.AVRational, i32 }
%struct.MXFContext = type { ptr, i64, i32, %struct.AVRational, i32, ptr, i32, i64, i8, i32, ptr, i32, i32, i64, %struct.AVTimecode, ptr, i32, i32, i32, i64, i32, [16 x i8], i32, i32, i32, %struct.AVRational, i32, i32, i32, [127 x i8], %struct.MXFStreamContext }
%struct.AVTimecode = type { i32, i32, %struct.AVRational, i32 }
%struct.MXFStreamContext = type { i64, [16 x i8], i32, ptr, ptr, i32, i32, i32, i32, i32, i32, i32, i32, i32, %struct.AVRational, i32, i32, i32, i32, i32, i32, i32, i32, i32, i32, %struct.j2k_info_t }
%struct.j2k_info_t = type { i16, i16, i32, i32, i32, i32, i32, i32, i32, i32, [12 x i8] }
%struct.AVCodecParameters = type { i32, i32, i32, ptr, i32, ptr, i32, i32, i64, i32, i32, i32, i32, i32, i32, %struct.AVRational, %struct.AVRational, i32, i32, i32, i32, i32, i32, i32, %struct.AVChannelLayout, i32, i32, i32, i32, i32, i32 }
%struct.AVChannelLayout = type { i32, i32, %union.anon.0, ptr }
%union.anon.0 = type { i64 }

@smpte_12m_timecode_track_data_ul = internal constant [16 x i8] c"\06\0E+4\04\01\01\01\01\03\02\01\01\00\00\00", align 16
@ff_mxf_data_definition_uls = external constant [0 x %struct.MXFCodecUL], align 8

; Function Attrs: nounwind uwtable
define internal ptr @mxf_get_codec_ul_by_id(ptr noundef %0, i32 noundef %1) #0 {
  %3 = alloca ptr, align 8
  %4 = alloca i32, align 4
  store ptr %0, ptr %3, align 8, !tbaa !273
  store i32 %1, ptr %4, align 4, !tbaa !57
  br label %5

5:                                                ; preds = %18, %2
  %6 = load ptr, ptr %3, align 8, !tbaa !273
  %7 = getelementptr inbounds nuw %struct.MXFCodecUL, ptr %6, i32 0, i32 0
  %8 = getelementptr inbounds [16 x i8], ptr %7, i64 0, i64 0
  %9 = load i8, ptr %8, align 8, !tbaa !132
  %10 = icmp ne i8 %9, 0
  br i1 %10, label %11, label %21

11:                                               ; preds = %5
  %12 = load i32, ptr %4, align 4, !tbaa !57
  %13 = load ptr, ptr %3, align 8, !tbaa !273
  %14 = getelementptr inbounds nuw %struct.MXFCodecUL, ptr %13, i32 0, i32 2
  %15 = load i32, ptr %14, align 4, !tbaa !275
  %16 = icmp eq i32 %12, %15
  br i1 %16, label %17, label %18

17:                                               ; preds = %11
  br label %21

18:                                               ; preds = %11
  %19 = load ptr, ptr %3, align 8, !tbaa !273
  %20 = getelementptr inbounds nuw %struct.MXFCodecUL, ptr %19, i32 1
  store ptr %20, ptr %3, align 8, !tbaa !273
  br label %5, !llvm.loop !277

21:                                               ; preds = %17, %5
  %22 = load ptr, ptr %3, align 8, !tbaa !273
  ret ptr %22
}

; Function Attrs: nounwind uwtable
define internal void @mxf_write_common_fields(ptr noundef %0, ptr noundef %1) #0 {
  %3 = alloca ptr, align 8
  %4 = alloca ptr, align 8
  %5 = alloca ptr, align 8
  %6 = alloca ptr, align 8
  %7 = alloca ptr, align 8
  store ptr %0, ptr %3, align 8, !tbaa !4
  store ptr %1, ptr %4, align 8, !tbaa !38
  call void @llvm.lifetime.start.p0(i64 8, ptr %5) #13
  %8 = load ptr, ptr %3, align 8, !tbaa !4
  %9 = getelementptr inbounds nuw %struct.AVFormatContext, ptr %8, i32 0, i32 3
  %10 = load ptr, ptr %9, align 8, !tbaa !11
  store ptr %10, ptr %5, align 8, !tbaa !28
  call void @llvm.lifetime.start.p0(i64 8, ptr %6) #13
  %11 = load ptr, ptr %3, align 8, !tbaa !4
  %12 = getelementptr inbounds nuw %struct.AVFormatContext, ptr %11, i32 0, i32 4
  %13 = load ptr, ptr %12, align 8, !tbaa !30
  store ptr %13, ptr %6, align 8, !tbaa !31
  %14 = load ptr, ptr %3, align 8, !tbaa !4
  call void @mxf_write_local_tag(ptr noundef %14, i32 noundef 16, i32 noundef 513)
  %15 = load ptr, ptr %4, align 8, !tbaa !38
  %16 = load ptr, ptr %5, align 8, !tbaa !28
  %17 = getelementptr inbounds nuw %struct.MXFContext, ptr %16, i32 0, i32 15
  %18 = load ptr, ptr %17, align 8, !tbaa !139
  %19 = icmp eq ptr %15, %18
  br i1 %19, label %20, label %22

20:                                               ; preds = %2
  %21 = load ptr, ptr %6, align 8, !tbaa !31
  call void @avio_write(ptr noundef %21, ptr noundef @smpte_12m_timecode_track_data_ul, i32 noundef 16)
  br label %33

22:                                               ; preds = %2
  call void @llvm.lifetime.start.p0(i64 8, ptr %7) #13
  %23 = load ptr, ptr %4, align 8, !tbaa !38
  %24 = getelementptr inbounds nuw %struct.AVStream, ptr %23, i32 0, i32 3
  %25 = load ptr, ptr %24, align 8, !tbaa !58
  %26 = getelementptr inbounds nuw %struct.AVCodecParameters, ptr %25, i32 0, i32 0
  %27 = load i32, ptr %26, align 8, !tbaa !64
  %28 = call ptr @mxf_get_codec_ul_by_id(ptr noundef @ff_mxf_data_definition_uls, i32 noundef %27)
  store ptr %28, ptr %7, align 8, !tbaa !273
  %29 = load ptr, ptr %6, align 8, !tbaa !31
  %30 = load ptr, ptr %7, align 8, !tbaa !273
  %31 = getelementptr inbounds nuw %struct.MXFCodecUL, ptr %30, i32 0, i32 0
  %32 = getelementptr inbounds [16 x i8], ptr %31, i64 0, i64 0
  call void @avio_write(ptr noundef %29, ptr noundef %32, i32 noundef 16)
  call void @llvm.lifetime.end.p0(i64 8, ptr %7) #13
  br label %33

33:                                               ; preds = %22, %20
  %34 = load ptr, ptr %3, align 8, !tbaa !4
  call void @mxf_write_local_tag(ptr noundef %34, i32 noundef 8, i32 noundef 514)
  %35 = load ptr, ptr %4, align 8, !tbaa !38
  %36 = load ptr, ptr %5, align 8, !tbaa !28
  %37 = getelementptr inbounds nuw %struct.MXFContext, ptr %36, i32 0, i32 15
  %38 = load ptr, ptr %37, align 8, !tbaa !139
  %39 = icmp ne ptr %35, %38
  br i1 %39, label %40, label %62

40:                                               ; preds = %33
  %41 = load ptr, ptr %3, align 8, !tbaa !4
  %42 = getelementptr inbounds nuw %struct.AVFormatContext, ptr %41, i32 0, i32 2
  %43 = load ptr, ptr %42, align 8, !tbaa !53
  %44 = icmp eq ptr %43, @ff_mxf_opatom_muxer
  br i1 %44, label %45, label %62

45:                                               ; preds = %40
  %46 = load ptr, ptr %4, align 8, !tbaa !38
  %47 = getelementptr inbounds nuw %struct.AVStream, ptr %46, i32 0, i32 3
  %48 = load ptr, ptr %47, align 8, !tbaa !58
  %49 = getelementptr inbounds nuw %struct.AVCodecParameters, ptr %48, i32 0, i32 0
  %50 = load i32, ptr %49, align 8, !tbaa !64
  %51 = icmp eq i32 %50, 1
  br i1 %51, label %52, label %62

52:                                               ; preds = %45
  %53 = load ptr, ptr %6, align 8, !tbaa !31
  %54 = load ptr, ptr %5, align 8, !tbaa !28
  %55 = getelementptr inbounds nuw %struct.MXFContext, ptr %54, i32 0, i32 19
  %56 = load i64, ptr %55, align 8, !tbaa !68
  %57 = load ptr, ptr %5, align 8, !tbaa !28
  %58 = getelementptr inbounds nuw %struct.MXFContext, ptr %57, i32 0, i32 17
  %59 = load i32, ptr %58, align 4, !tbaa !55
  %60 = sext i32 %59 to i64
  %61 = udiv i64 %56, %60
  call void @avio_wb64(ptr noundef %53, i64 noundef %61)
  br label %67

62:                                               ; preds = %45, %40, %33
  %63 = load ptr, ptr %6, align 8, !tbaa !31
  %64 = load ptr, ptr %5, align 8, !tbaa !28
  %65 = getelementptr inbounds nuw %struct.MXFContext, ptr %64, i32 0, i32 13
  %66 = load i64, ptr %65, align 8, !tbaa !76
  call void @avio_wb64(ptr noundef %63, i64 noundef %66)
  br label %67

67:                                               ; preds = %62, %52
  call void @llvm.lifetime.end.p0(i64 8, ptr %6) #13
  call void @llvm.lifetime.end.p0(i64 8, ptr %5) #13
  ret void
}