; Function Attrs: nounwind uwtable
define internal fastcc void @mxf_write_common_fields(ptr noundef readonly captures(none) %0, ptr noundef readonly captures(address) %1) unnamed_addr #0 {
  %3 = getelementptr inbounds nuw i8, ptr %0, i64 24
  %4 = load ptr, ptr %3, align 8, !tbaa !4
  %5 = getelementptr inbounds nuw i8, ptr %0, i64 32
  %6 = load ptr, ptr %5, align 8, !tbaa !24
  tail call fastcc void @mxf_write_local_tag(ptr %4, ptr %6, i32 noundef 16, i32 noundef 513)
  %7 = getelementptr inbounds nuw i8, ptr %4, i64 112
  %8 = load ptr, ptr %7, align 8, !tbaa !222
  %9 = icmp eq ptr %1, %8
  br i1 %9, label %mxf_get_codec_ul_by_id.exit, label %10

10:                                               ; preds = %2
  %11 = getelementptr inbounds nuw i8, ptr %1, i64 16
  %12 = load ptr, ptr %11, align 8, !tbaa !48
  %13 = load i32, ptr %12, align 8, !tbaa !119
  %14 = load i8, ptr @ff_mxf_data_definition_uls, align 8, !tbaa !54
  %.not4.i = icmp eq i8 %14, 0
  br i1 %.not4.i, label %mxf_get_codec_ul_by_id.exit, label %.lr.ph.i

.lr.ph.i:                                         ; preds = %10, %18
  %.05.i = phi ptr [ %19, %18 ], [ @ff_mxf_data_definition_uls, %10 ]
  %15 = getelementptr inbounds nuw i8, ptr %.05.i, i64 20
  %16 = load i32, ptr %15, align 4, !tbaa !260
  %17 = icmp eq i32 %13, %16
  br i1 %17, label %mxf_get_codec_ul_by_id.exit, label %18

18:                                               ; preds = %.lr.ph.i
  %19 = getelementptr inbounds nuw i8, ptr %.05.i, i64 40
  %20 = load i8, ptr %19, align 8, !tbaa !54
  %.not.i = icmp eq i8 %20, 0
  br i1 %.not.i, label %mxf_get_codec_ul_by_id.exit, label %.lr.ph.i, !llvm.loop !262

mxf_get_codec_ul_by_id.exit:                      ; preds = %18, %.lr.ph.i, %10, %2
  %.0.lcssa.i.sink = phi ptr [ @smpte_12m_timecode_track_data_ul, %2 ], [ @ff_mxf_data_definition_uls, %10 ], [ %19, %18 ], [ %.05.i, %.lr.ph.i ]
  tail call void @avio_write(ptr noundef %6, ptr noundef nonnull %.0.lcssa.i.sink, i32 noundef 16) #14
  %.val = load ptr, ptr %3, align 8, !tbaa !4
  %.val19 = load ptr, ptr %5, align 8, !tbaa !24
  tail call fastcc void @mxf_write_local_tag(ptr %.val, ptr %.val19, i32 noundef 8, i32 noundef 514)
  %21 = load ptr, ptr %7, align 8, !tbaa !222
  %.not = icmp eq ptr %1, %21
  br i1 %.not, label %38, label %22

22:                                               ; preds = %mxf_get_codec_ul_by_id.exit
  %23 = getelementptr inbounds nuw i8, ptr %0, i64 16
  %24 = load ptr, ptr %23, align 8, !tbaa !44
  %25 = icmp eq ptr %24, @ff_mxf_opatom_muxer
  br i1 %25, label %26, label %38

26:                                               ; preds = %22
  %27 = getelementptr inbounds nuw i8, ptr %1, i64 16
  %28 = load ptr, ptr %27, align 8, !tbaa !48
  %29 = load i32, ptr %28, align 8, !tbaa !119
  %30 = icmp eq i32 %29, 1
  br i1 %30, label %31, label %38

31:                                               ; preds = %26
  %32 = getelementptr inbounds nuw i8, ptr %4, i64 136
  %33 = load i64, ptr %32, align 8, !tbaa !124
  %34 = getelementptr inbounds nuw i8, ptr %4, i64 124
  %35 = load i32, ptr %34, align 4, !tbaa !46
  %36 = sext i32 %35 to i64
  %37 = udiv i64 %33, %36
  br label %41

38:                                               ; preds = %26, %22, %mxf_get_codec_ul_by_id.exit
  %39 = getelementptr inbounds nuw i8, ptr %4, i64 80
  %40 = load i64, ptr %39, align 8, !tbaa !142
  br label %41

41:                                               ; preds = %38, %31
  %.sink = phi i64 [ %40, %38 ], [ %37, %31 ]
  tail call void @avio_wb64(ptr noundef %6, i64 noundef %.sink) #14
  ret void
}